
Transputer Debugger V1.15
Copyright (C)1987, Perihelion Software Ltd.
*** i860/link hacked version ***
debugging through link 1
Boot size = 212 bytes

f0000000:  7a 19 11 40  05 0b f8 91  z^Y^Q @^E^K . .
f0000008:  00 20 00 40  00 00 00 a0 ^@  ^@ @^@^@^@ .

f000d83c:  e8 ff 42 94  01 08 40 1c  . . B .^A^H @^\
f000d844:  05 20 40 1c  09 28 40 1c ^E   @^\^I ( @^\

f000d83c  9442ffe8    adds  -24,r2,r2
f000d840  1c400801    st.l  r1,0(r2)
f000d844  1c402005    st.l  r4,4(r2)
f000d848  1c402809    st.l  r5,8(r2)

f000d84c  1c40300d    st.l  r6,12(r2)
f000d850  1c403811    st.l  r7,16(r2)
f000d854  e4070000    or    0,r0,r7
f000d858  ec068000    orh   -32768,r0,r6

f000d85c  9442fed4    adds  -300,r2,r2
f000d860  9405ffe8    adds  -24,r0,r5
f000d864  9442fffc    adds  -4,r2,r2
f000d868  30100000    ld.c  fir,r16

f000d86c  961001b4    adds  436,r16,r16
f000d870  6c000266    call  f000e20c
f000d874  a0000000    shl   r0,r0,r0
f000d878  94420004    adds  4,r2,r2

f000d87c  9442fffc    adds  -4,r2,r2
f000d880  94500004    adds  4,r2,r16
f000d884  6ffff998    call  f000bee8
f000d888  a0000000    shl   r0,r0,r0

f000d88c  94420004    adds  4,r2,r2
f000d890  9442fffc    adds  -4,r2,r2
f000d894  94500004    adds  4,r2,r16
f000d898  6c0002d6    call  f000e3f4

f000d89c  a0000000    shl   r0,r0,r0
f000d8a0  94420004    adds  4,r2,r2
f000d8a4  ec10f000    orh   -4096,r0,r16
f000d8a8  e6109d00    or    -25344,r16,r16

f000d8ac  1ca08011    st.l  r16,16(r5)
f000d8b0  e4100010    or    16,r0,r16
f000d8b4  1604ffe9    ld.l  -24(r16),r4
f000d8b8  a0900000    shl   r0,r4,r16

f000d8bc  a0f10000    shl   r0,r7,r17
f000d8c0  ec130fff    orh   4095,r0,r19
f000d8c4  e673ffff    or    -1,r19,r19
f000d8c8  ec12f000    orh   -4096,r0,r18

f000d8cc  e6529a00    or    -26112,r18,r18
f000d8d0  a0f40000    shl   r0,r7,r20
f000d8d4  30070000    ld.c  fir,r7
f000d8d8  94e7fd9c    adds  -612,r7,r7

f000d8dc  1e00a001    st.l  r20,0(r16)
f000d8e0  a2150000    shl   r0,r16,r21
f000d8e4  1ea08005    st.l  r16,4(r21)
f000d8e8  96310001    adds  1,r17,r17

f000d8ec  96100008    adds  8,r16,r16
f000d8f0  9620fffe    adds  -2,r17,r0
f000d8f4  73fffff9    bc    f000d8dc
f000d8f8  1c80a015    st.l  r20,20(r4)

f000d8fc  a2500000    shl   r0,r18,r16
f000d900  1c808011    st.l  r16,16(r4)
f000d904  1c80a01d    st.l  r20,28(r4)
f000d908  1c809819    st.l  r19,24(r4)

f000d90c  1c80a02d    st.l  r20,44(r4)
f000d910  1c80a025    st.l  r20,36(r4)
f000d914  e4110001    or    1,r0,r17
f000d918  1c808829    st.l  r17,40(r4)

f000d91c  1c80a031    st.l  r20,48(r4)
f000d920  1e00a001    st.l  r20,0(r16)
f000d924  1e00a005    st.l  r20,4(r16)
f000d928  9442fffc    adds  -4,r2,r2

f000d92c  6c00004f    call  f000da6c
f000d930  a0000000    shl   r0,r0,r0
f000d934  94420004    adds  4,r2,r2
f000d938  9442fffc    adds  -4,r2,r2

f000d93c  94900034    adds  52,r4,r16
f000d940  a0000000    shl   r0,r0,r0
f000d944  6c000880    call  f000fb48
f000d948  a0000000    shl   r0,r0,r0

f000d94c  94420004    adds  4,r2,r2
f000d950  9442fffc    adds  -4,r2,r2
f000d954  6ffffb76    call  f000c730
f000d958  a0000000    shl   r0,r0,r0

f000d95c  94420004    adds  4,r2,r2
f000d960  1ca0800d    st.l  r16,12(r5)
f000d964  9442fffc    adds  -4,r2,r2
f000d968  a0f00000    shl   r0,r7,r16

f000d96c  6ffff82e    call  f000ba28
f000d970  a0000000    shl   r0,r0,r0
f000d974  94420004    adds  4,r2,r2
f000d978  1c803069    st.l  r6,104(r4)

f000d97c  1c80305d    st.l  r6,92(r4)
f000d980  9442fffc    adds  -4,r2,r2
f000d984  6c000346    call  f000e6a0
f000d988  a0000000    shl   r0,r0,r0

f000d98c  94420004    adds  4,r2,r2
f000d990  9442fffc    adds  -4,r2,r2
f000d994  6ffff9dc    call  f000c108
f000d998  a0000000    shl   r0,r0,r0

f000d99c  a2110000    shl   r0,r16,r17
f000d9a0  30100000    ld.c  fir,r16
f000d9a4  96100090    adds  144,r16,r16
f000d9a8  6c000218    call  f000e20c

f000d9ac  a0000000    shl   r0,r0,r0
f000d9b0  94420004    adds  4,r2,r2
f000d9b4  9442fffc    adds  -4,r2,r2
f000d9b8  30100000    ld.c  fir,r16

f000d9bc  9610008c    adds  140,r16,r16
f000d9c0  a0000000    shl   r0,r0,r0
f000d9c4  6c000211    call  f000e20c
f000d9c8  a0000000    shl   r0,r0,r0

f000d9cc  94420004    adds  4,r2,r2
f000d9d0  9442fffc    adds  -4,r2,r2
f000d9d4  94500004    adds  4,r2,r16
f000d9d8  6ffff943    call  f000bee8

f000d9cc:  04 00 42 94  fc ff 42 94 ^D^@ B . . . B .
f000d9d4:  04 00 50 94  43 f9 ff 6f ^D^@ P . C . . o

f000d9dc  a0000000    shl   r0,r0,r0
f000d9e0  94420004    adds  4,r2,r2
f000d9e4  9442fffc    adds  -4,r2,r2
f000d9e8  94500004    adds  4,r2,r16

f000d9ec  6c000281    call  f000e3f4
f000d9f0  a0000000    shl   r0,r0,r0
f000d9f4  94420004    adds  4,r2,r2
f000d9f8  9442012c    adds  300,r2,r2

f000d9fc  14410001    ld.l  0(r2),r1
f000da00  14440005    ld.l  4(r2),r4
f000da04  14450009    ld.l  8(r2),r5
f000da08  1446000d    ld.l  12(r2),r6

f000da0c  14470011    ld.l  16(r2),r7
f000da10  94420018    adds  24,r2,r2
f000da14  40000800    bri   r1
f000da18  a0000000    shl   r0,r0,r0

f000da1c  63657845    pfld.lf5,r15(r27)++
f000da20  74696e49    bc.t  f1a69348
f000da24  7473203a    bc.t  f1cd5b10
f000da28  69747261    br    f5d2a3b0

f000da2c  000a676e    ld.b  r12(r0),r10
f000da30  75746572    bc.t  f5d26ffc
f000da34  61206e72    pfld.qf0,r13(r9)
f000da38  65726464    pfld.lf18,25700(r11)

f000da3c  25207373    fld.q f0,29555(r9)++
f000da40  000a2058    ld.b  r4(r0),r10
f000da44  63657845    pfld.lf5,r15(r27)++
f000da48  74696e49    bc.t  f1a69370

f000da4c  656c203a    pfld.qf12,8250(r11)
f000da50  6e697661    call  e9a6b3d8
f000da54  000a2067    ld.b  r4(r0),r10
f000da58  74696e49    bc.t  f1a69380

f000da5c  6574525f    pfld.lf20,21087(r11)++
f000da60  7461445f    bc.t  f185ebe0
f000da64  00000061    ld.b  r0(r0),r0
f000da68  ff000010    xorh  16,r24,r0

f000da6c  ec13fc00    orh   -1024,r0,r19
f000da70  e673007f    or    127,r19,r19
f000da74  ec11fc00    orh   -1024,r0,r17
f000da78  ec12fc00    orh   -1024,r0,r18

f000da7c  e6520001    or    1,r18,r18
f000da80  ec10f000    orh   -4096,r0,r16
f000da84  e6109c00    or    -25600,r16,r16
f000da88  ec14f000    orh   -4096,r0,r20

f000da8c  e6940001    or    1,r20,r20
f000da90  1e00a001    st.l  r20,0(r16)
f000da94  96100004    adds  4,r16,r16
f000da98  ec142000    orh   8192,r0,r20

f000da9c  e6940001    or    1,r20,r20
f000daa0  1e00a001    st.l  r20,0(r16)
f000daa4  96100004    adds  4,r16,r16
f000daa8  1e009001    st.l  r18,0(r16)

f000daac  96100004    adds  4,r16,r16
f000dab0  ec143c00    orh   15360,r0,r20
f000dab4  e6940001    or    1,r20,r20
f000dab8  1e00a001    st.l  r20,0(r16)

f000dabc  96100004    adds  4,r16,r16
f000dac0  ec14f800    orh   -2048,r0,r20
f000dac4  e6940001    or    1,r20,r20
f000dac8  1e00a001    st.l  r20,0(r16)

f000dacc  96100004    adds  4,r16,r16
f000dad0  ec146000    orh   24576,r0,r20
f000dad4  e6940001    or    1,r20,r20
f000dad8  1e00a001    st.l  r20,0(r16)

f000dadc  96100004    adds  4,r16,r16
f000dae0  1e009001    st.l  r18,0(r16)
f000dae4  96100004    adds  4,r16,r16
f000dae8  ec123400    orh   13312,r0,r18

f000daec  e6520001    or    1,r18,r18
f000daf0  1e009001    st.l  r18,0(r16)
f000daf4  96100004    adds  4,r16,r16
f000daf8  1e008801    st.l  r17,0(r16)

f000dafc  96100004    adds  4,r16,r16
f000db00  ec124000    orh   16384,r0,r18
f000db04  1e009001    st.l  r18,0(r16)
f000db08  96100004    adds  4,r16,r16

f000db0c  ec12fc00    orh   -1024,r0,r18
f000db10  e652001f    or    31,r18,r18
f000db14  1e009001    st.l  r18,0(r16)
f000db18  96100004    adds  4,r16,r16

f000db1c  ec124c00    orh   19456,r0,r18
f000db20  e6520002    or    2,r18,r18
f000db24  1e009001    st.l  r18,0(r16)
f000db28  96100004    adds  4,r16,r16

f000db2c  1e008801    st.l  r17,0(r16)
f000db30  96100004    adds  4,r16,r16
f000db34  ec126800    orh   26624,r0,r18
f000db38  1e009001    st.l  r18,0(r16)

f000db3c  96100004    adds  4,r16,r16
f000db40  1e008801    st.l  r17,0(r16)
f000db44  96100004    adds  4,r16,r16
f000db48  ec126c00    orh   27648,r0,r18

f000db4c  1e009001    st.l  r18,0(r16)
f000db50  96100004    adds  4,r16,r16
f000db54  1e008801    st.l  r17,0(r16)
f000db58  96100004    adds  4,r16,r16

f000db5c  ec127400    orh   29696,r0,r18
f000db60  1e009001    st.l  r18,0(r16)
f000db64  96100004    adds  4,r16,r16
f000db68  1e008801    st.l  r17,0(r16)

f000db6c  96100004    adds  4,r16,r16
f000db70  ec127c00    orh   31744,r0,r18
f000db74  1e009001    st.l  r18,0(r16)
f000db78  96100004    adds  4,r16,r16

f000db7c  1e008801    st.l  r17,0(r16)
f000db80  96100004    adds  4,r16,r16
f000db84  ec11b400    orh   -19456,r0,r17
f000db88  1e008801    st.l  r17,0(r16)

f000db8c  96100004    adds  4,r16,r16
f000db90  1e009801    st.l  r19,0(r16)
f000db94  96100004    adds  4,r16,r16
f000db98  ec114800    orh   18432,r0,r17

f000db9c  e6310034    or    52,r17,r17
f000dba0  1e008801    st.l  r17,0(r16)
f000dba4  96100004    adds  4,r16,r16
f000dba8  1e009801    st.l  r19,0(r16)

f000dbac  96100004    adds  4,r16,r16
f000dbb0  ec114800    orh   18432,r0,r17
f000dbb4  e6310035    or    53,r17,r17
f000dbb8  1e008801    st.l  r17,0(r16)

f000dbbc  40000800    bri   r1
f000dbc0  a0000000    shl   r0,r0,r0
f000dbc4  00000000    ld.b  r0(r0),r0
f000dbc8  70616461    bc    f1866d50

f000dbcc  61726574    pfld.lf18,r12(r11)
f000dbd0  65726464    pfld.lf18,25700(r11)
f000dbd4  00007373    ld.b  r14(r0),r0
f000dbd8  ff000010    xorh  16,r24,r0

f000dbdc  30100000    ld.c  fir,r16
f000dbe0  96100018    adds  24,r16,r16
f000dbe4  ec11f800    orh   -2048,r0,r17
f000dbe8  e631001f    or    31,r17,r17

f000dbec  68000187    br    f000e20c
f000dbf0  a0000000    shl   r0,r0,r0
f000dbf4  70616461    bc    f1866d7c
f000dbf8  20726574    fld.l f18,r12(r3)

f000dbfc  72646461    bc    e9926d84
f000dc00  20737365    fld.l f19,r14(r3)++
f000dc04  6174736f    pfld.lf20,r14(r11)++
f000dc08  203d2074    fld.l f29,r4(r1)

f000dc0c  000a5825    ld.b  r11(r0),r10
f000dc10  7479626f    bc.t  f1e665d0
f000dc14  00000065    ld.b  r0(r0),r0
f000dc18  ff000008    xorh  8,r24,r0

f000dc1c  c61000ff    and   255,r16,r16
f000dc20  e412001f    or    31,r0,r18
f000dc24  e411000f    or    15,r0,r17
f000dc28  ec1ff800    orh   -2048,r0,r31

f000dc2c  9253f800    adds  r31,r18,r19
f000dc30  06730000    ld.b  0(r19),r19
f000dc34  c67300ff    and   255,r19,r19
f000dc38  c6730001    and   1,r19,r19

f000dc3c  f6600000    xor   0,r19,r0
f000dc40  a0000000    shl   r0,r0,r0
f000dc44  73fffff8    bc    f000dc28
f000dc48  ec1ff800    orh   -2048,r0,r31

f000dc4c  9231f800    adds  r31,r17,r17
f000dc50  0e208000    st.b  r16,0(r17)
f000dc54  40000800    bri   r1
f000dc58  a0000000    shl   r0,r0,r0

f000dc5c  74796269    bc.t  f1e66604
f000dc60  00000065    ld.b  r0(r0),r0
f000dc64  ff000008    xorh  8,r24,r0
f000dc68  e4110017    or    23,r0,r17

f000dc6c  e4100007    or    7,r0,r16
f000dc70  ec1ff800    orh   -2048,r0,r31
f000dc74  9232f800    adds  r31,r17,r18
f000dc78  06520000    ld.b  0(r18),r18

f000dc7c  c65200ff    and   255,r18,r18
f000dc80  c6520001    and   1,r18,r18
f000dc84  f6400000    xor   0,r18,r0
f000dc88  73fffff9    bc    f000dc70

f000dc8c  ec1ff800    orh   -2048,r0,r31
f000dc90  9210f800    adds  r31,r16,r16
f000dc94  06100000    ld.b  0(r16),r16
f000dc98  c61000ff    and   255,r16,r16

f000dc9c  40000800    bri   r1
f000dca0  a0000000    shl   r0,r0,r0
f000dca4  7374756f    bc    edd2b264
f000dca8  6e697274    call  e9a6a67c

f000dcac  00000067    ld.b  r0(r0),r0
f000dcb0  ff00000c    xorh  12,r24,r0
f000dcb4  9442fff0    adds  -16,r2,r2
f000dcb8  1c400801    st.l  r1,0(r2)

f000dcbc  1c402005    st.l  r4,4(r2)
f000dcc0  1c402809    st.l  r5,8(r2)
f000dcc4  a2040000    shl   r0,r16,r4
f000dcc8  e4050000    or    0,r0,r5

f000dccc  68000004    br    f000dce0
f000dcd0  a0000000    shl   r0,r0,r0
f000dcd4  6fffffd1    call  f000dc1c
f000dcd8  a0000000    shl   r0,r0,r0

f000dcdc  94a50001    adds  1,r5,r5
f000dce0  04900000    ld.b  0(r4),r16
f000dce4  c61000ff    and   255,r16,r16
f000dce8  94840001    adds  1,r4,r4

f000dcec  f6000000    xor   0,r16,r0
f000dcf0  7bfffff8    bnc   f000dcd4
f000dcf4  a0b00000    shl   r0,r5,r16
f000dcf8  14410001    ld.l  0(r2),r1

f000dcfc  14440005    ld.l  4(r2),r4
f000dd00  14450009    ld.l  8(r2),r5
f000dd04  94420010    adds  16,r2,r2
f000dd08  40000800    bri   r1

f000dd0c  a0000000    shl   r0,r0,r0
f000dd10  726f776f    bc    e9bebad0
f000dd14  00000064    ld.b  r0(r0),r0
f000dd18  ff000008    xorh  8,r24,r0

f000dd1c  9442fff8    adds  -8,r2,r2
f000dd20  1c400801    st.l  r1,0(r2)
f000dd24  1c402005    st.l  r4,4(r2)
f000dd28  a2040000    shl   r0,r16,r4

f000dd2c  a0900000    shl   r0,r4,r16
f000dd30  6fffffba    call  f000dc1c
f000dd34  a0000000    shl   r0,r0,r0
f000dd38  bc900008    shra  8,r4,r16

f000dd3c  6fffffb7    call  f000dc1c
f000dd40  a0000000    shl   r0,r0,r0
f000dd44  bc900010    shra  16,r4,r16
f000dd48  6fffffb4    call  f000dc1c

f000dd4c  a0000000    shl   r0,r0,r0
f000dd50  bc900018    shra  24,r4,r16
f000dd54  14410001    ld.l  0(r2),r1
f000dd58  14440005    ld.l  4(r2),r4

f000dd5c  94420008    adds  8,r2,r2
f000dd60  a0000000    shl   r0,r0,r0
f000dd64  6bffffad    br    f000dc1c
f000dd68  a0000000    shl   r0,r0,r0

f000dd6c  726f7769    bc    e9bebb14
f000dd70  00000064    ld.b  r0(r0),r0
f000dd74  ff000008    xorh  8,r24,r0
f000dd78  9442fff8    adds  -8,r2,r2

f000dd7c  1c400801    st.l  r1,0(r2)
f000dd80  1c402005    st.l  r4,4(r2)
f000dd84  6fffffb8    call  f000dc68
f000dd88  a0000000    shl   r0,r0,r0

f000dd8c  a2040000    shl   r0,r16,r4
f000dd90  6fffffb5    call  f000dc68
f000dd94  a0000000    shl   r0,r0,r0
f000dd98  a6100008    shl   8,r16,r16

f000dd9c  90848000    adds  r16,r4,r4
f000dda0  a0000000    shl   r0,r0,r0
f000dda4  6fffffb0    call  f000dc68
f000dda8  a0000000    shl   r0,r0,r0

f000ddac  a6100010    shl   16,r16,r16
f000ddb0  90848000    adds  r16,r4,r4
f000ddb4  6fffffac    call  f000dc68
f000ddb8  a0000000    shl   r0,r0,r0

f000ddbc  a6100018    shl   24,r16,r16
f000ddc0  90908000    adds  r16,r4,r16
f000ddc4  14410001    ld.l  0(r2),r1
f000ddc8  14440005    ld.l  4(r2),r4

f000ddcc  94420008    adds  8,r2,r2
f000ddd0  40000800    bri   r1
f000ddd4  a0000000    shl   r0,r0,r0
f000ddd8  756e7070    bc.t  f5ba9f9c

f000dddc  0000006d    ld.b  r0(r0),r0
f000dde0  ff000008    xorh  8,r24,r0
f000dde4  9442ffe8    adds  -24,r2,r2
f000dde8  1c400801    st.l  r1,0(r2)

f000ddec  1c402005    st.l  r4,4(r2)
f000ddf0  1c402809    st.l  r5,8(r2)
f000ddf4  1c40300d    st.l  r6,12(r2)
f000ddf8  1c403811    st.l  r7,16(r2)

f000ddfc  a2050000    shl   r0,r16,r5
f000de00  a2240000    shl   r0,r17,r4
f000de04  30060000    ld.c  fir,r6
f000de08  94c6009c    adds  156,r6,r6

f000de0c  f4a00000    xor   0,r5,r0
f000de10  78000009    bnc   f000de38
f000de14  e4100000    or    0,r0,r16
f000de18  14410001    ld.l  0(r2),r1

f000de1c  14440005    ld.l  4(r2),r4
f000de20  14450009    ld.l  8(r2),r5
f000de24  1446000d    ld.l  12(r2),r6
f000de28  14470011    ld.l  16(r2),r7

f000de2c  94420018    adds  24,r2,r2
f000de30  40000800    bri   r1
f000de34  a0000000    shl   r0,r0,r0
f000de38  a0b10000    shl   r0,r5,r17

f000de3c  a0900000    shl   r0,r4,r16
f000de40  a0000000    shl   r0,r0,r0
f000de44  6ffff8bf    call  f000c144
f000de48  a0000000    shl   r0,r0,r0

f000de4c  a0910000    shl   r0,r4,r17
f000de50  6fffffe4    call  f000dde4
f000de54  a0000000    shl   r0,r0,r0
f000de58  a2070000    shl   r0,r16,r7

f000de5c  a0b10000    shl   r0,r5,r17
f000de60  a0900000    shl   r0,r4,r16
f000de64  6ffff8c1    call  f000c16c
f000de68  a0000000    shl   r0,r0,r0

f000de6c  00d08000    ld.b  r16(r6),r16
f000de70  c61000ff    and   255,r16,r16
f000de74  6fffff69    call  f000dc1c
f000de78  a0000000    shl   r0,r0,r0

f000de7c  94f00001    adds  1,r7,r16
f000de80  14410001    ld.l  0(r2),r1
f000de84  14440005    ld.l  4(r2),r4
f000de88  14450009    ld.l  8(r2),r5

f000de7c:  01 00 f0 94  01 00 41 14 ^A^@ . .^A^@ A^T
f000de84:  05 00 44 14  09 00 45 14 ^E^@ D^T^I^@ E^T

Exit to system - sure? 
Debug finished
